target datalayout = "e-m:e-p270:32:32-p271:32:32-p272:64:64-i64:64-i128:128-f80:128-n8:16:32:64-S128"
target triple = "x86_64-pc-linux-gnu"

%"class.Assimp::Q3BSPFileParser" = type { i64, %"class.std::vector", ptr, ptr }
%"class.std::vector" = type { %"struct.std::_Vector_base" }
%"struct.std::_Vector_base" = type { %"struct.std::_Vector_base<char, std::allocator<char>>::_Vector_impl" }
%"struct.std::_Vector_base<char, std::allocator<char>>::_Vector_impl" = type { %"struct.std::_Vector_base<char, std::allocator<char>>::_Vector_impl_data" }
%"struct.std::_Vector_base<char, std::allocator<char>>::_Vector_impl_data" = type { ptr, ptr, ptr }
%"struct.Assimp::Q3BSP::Q3BSPModel" = type { %"class.std::vector.0", %"class.std::vector.5", %"class.std::vector.10", %"class.std::vector.15", %"class.std::vector.20", %"class.std::vector.25", %"class.std::vector.30", %"class.std::vector", %"class.std::__cxx11::basic_string" }
%"class.std::vector.0" = type { %"struct.std::_Vector_base.1" }
%"struct.std::_Vector_base.1" = type { %"struct.std::_Vector_base<unsigned char, std::allocator<unsigned char>>::_Vector_impl" }
%"struct.std::_Vector_base<unsigned char, std::allocator<unsigned char>>::_Vector_impl" = type { %"struct.std::_Vector_base<unsigned char, std::allocator<unsigned char>>::_Vector_impl_data" }
%"struct.std::_Vector_base<unsigned char, std::allocator<unsigned char>>::_Vector_impl_data" = type { ptr, ptr, ptr }
%"class.std::vector.5" = type { %"struct.std::_Vector_base.6" }
%"struct.std::_Vector_base.6" = type { %"struct.std::_Vector_base<Assimp::Q3BSP::sQ3BSPLump *, std::allocator<Assimp::Q3BSP::sQ3BSPLump *>>::_Vector_impl" }
%"struct.std::_Vector_base<Assimp::Q3BSP::sQ3BSPLump *, std::allocator<Assimp::Q3BSP::sQ3BSPLump *>>::_Vector_impl" = type { %"struct.std::_Vector_base<Assimp::Q3BSP::sQ3BSPLump *, std::allocator<Assimp::Q3BSP::sQ3BSPLump *>>::_Vector_impl_data" }
%"struct.std::_Vector_base<Assimp::Q3BSP::sQ3BSPLump *, std::allocator<Assimp::Q3BSP::sQ3BSPLump *>>::_Vector_impl_data" = type { ptr, ptr, ptr }
%"class.std::vector.10" = type { %"struct.std::_Vector_base.11" }
%"struct.std::_Vector_base.11" = type { %"struct.std::_Vector_base<Assimp::Q3BSP::sQ3BSPVertex *, std::allocator<Assimp::Q3BSP::sQ3BSPVertex *>>::_Vector_impl" }
%"struct.std::_Vector_base<Assimp::Q3BSP::sQ3BSPVertex *, std::allocator<Assimp::Q3BSP::sQ3BSPVertex *>>::_Vector_impl" = type { %"struct.std::_Vector_base<Assimp::Q3BSP::sQ3BSPVertex *, std::allocator<Assimp::Q3BSP::sQ3BSPVertex *>>::_Vector_impl_data" }
%"struct.std::_Vector_base<Assimp::Q3BSP::sQ3BSPVertex *, std::allocator<Assimp::Q3BSP::sQ3BSPVertex *>>::_Vector_impl_data" = type { ptr, ptr, ptr }
%"class.std::vector.15" = type { %"struct.std::_Vector_base.16" }
%"struct.std::_Vector_base.16" = type { %"struct.std::_Vector_base<Assimp::Q3BSP::sQ3BSPFace *, std::allocator<Assimp::Q3BSP::sQ3BSPFace *>>::_Vector_impl" }
%"struct.std::_Vector_base<Assimp::Q3BSP::sQ3BSPFace *, std::allocator<Assimp::Q3BSP::sQ3BSPFace *>>::_Vector_impl" = type { %"struct.std::_Vector_base<Assimp::Q3BSP::sQ3BSPFace *, std::allocator<Assimp::Q3BSP::sQ3BSPFace *>>::_Vector_impl_data" }
%"struct.std::_Vector_base<Assimp::Q3BSP::sQ3BSPFace *, std::allocator<Assimp::Q3BSP::sQ3BSPFace *>>::_Vector_impl_data" = type { ptr, ptr, ptr }
%"class.std::vector.20" = type { %"struct.std::_Vector_base.21" }
%"struct.std::_Vector_base.21" = type { %"struct.std::_Vector_base<int, std::allocator<int>>::_Vector_impl" }
%"struct.std::_Vector_base<int, std::allocator<int>>::_Vector_impl" = type { %"struct.std::_Vector_base<int, std::allocator<int>>::_Vector_impl_data" }
%"struct.std::_Vector_base<int, std::allocator<int>>::_Vector_impl_data" = type { ptr, ptr, ptr }
%"class.std::vector.25" = type { %"struct.std::_Vector_base.26" }
%"struct.std::_Vector_base.26" = type { %"struct.std::_Vector_base<Assimp::Q3BSP::sQ3BSPTexture *, std::allocator<Assimp::Q3BSP::sQ3BSPTexture *>>::_Vector_impl" }
%"struct.std::_Vector_base<Assimp::Q3BSP::sQ3BSPTexture *, std::allocator<Assimp::Q3BSP::sQ3BSPTexture *>>::_Vector_impl" = type { %"struct.std::_Vector_base<Assimp::Q3BSP::sQ3BSPTexture *, std::allocator<Assimp::Q3BSP::sQ3BSPTexture *>>::_Vector_impl_data" }
%"struct.std::_Vector_base<Assimp::Q3BSP::sQ3BSPTexture *, std::allocator<Assimp::Q3BSP::sQ3BSPTexture *>>::_Vector_impl_data" = type { ptr, ptr, ptr }
%"class.std::vector.30" = type { %"struct.std::_Vector_base.31" }
%"struct.std::_Vector_base.31" = type { %"struct.std::_Vector_base<Assimp::Q3BSP::sQ3BSPLightmap *, std::allocator<Assimp::Q3BSP::sQ3BSPLightmap *>>::_Vector_impl" }
%"struct.std::_Vector_base<Assimp::Q3BSP::sQ3BSPLightmap *, std::allocator<Assimp::Q3BSP::sQ3BSPLightmap *>>::_Vector_impl" = type { %"struct.std::_Vector_base<Assimp::Q3BSP::sQ3BSPLightmap *, std::allocator<Assimp::Q3BSP::sQ3BSPLightmap *>>::_Vector_impl_data" }
%"struct.std::_Vector_base<Assimp::Q3BSP::sQ3BSPLightmap *, std::allocator<Assimp::Q3BSP::sQ3BSPLightmap *>>::_Vector_impl_data" = type { ptr, ptr, ptr }
%"class.std::__cxx11::basic_string" = type { %"struct.std::__cxx11::basic_string<char>::_Alloc_hider", i64, %union.anon }
%"struct.std::__cxx11::basic_string<char>::_Alloc_hider" = type { ptr }
%union.anon = type { i64, [8 x i8] }
%"struct.Assimp::Q3BSP::sQ3BSPLump" = type { i32, i32 }

; Function Attrs: mustprogress nounwind uwtable
define linkonce_odr hidden noundef nonnull align 8 dereferenceable(8) ptr @_ZNSt6vectorIPN6Assimp5Q3BSP12sQ3BSPVertexESaIS3_EEixEm(ptr noundef nonnull align 8 dereferenceable(24) %0, i64 noundef %1) #2 comdat align 2 {
  %3 = alloca ptr, align 8
  %4 = alloca i64, align 8
  store ptr %0, ptr %3, align 8
  store i64 %1, ptr %4, align 8
  %5 = load ptr, ptr %3, align 8
  %6 = getelementptr inbounds nuw %"struct.std::_Vector_base.11", ptr %5, i32 0, i32 0
  %7 = getelementptr inbounds nuw %"struct.std::_Vector_base<Assimp::Q3BSP::sQ3BSPVertex *, std::allocator<Assimp::Q3BSP::sQ3BSPVertex *>>::_Vector_impl_data", ptr %6, i32 0, i32 0
  %8 = load ptr, ptr %7, align 8
  %9 = load i64, ptr %4, align 8
  %10 = getelementptr inbounds nuw ptr, ptr %8, i64 %9
  ret ptr %10
}

; Function Attrs: mustprogress nounwind uwtable
define linkonce_odr noundef nonnull align 1 dereferenceable(1) ptr @_ZNSt6vectorIcSaIcEEixEm(ptr noundef nonnull align 8 dereferenceable(24) %0, i64 noundef %1) #2 comdat align 2 {
  %3 = alloca ptr, align 8
  %4 = alloca i64, align 8
  store ptr %0, ptr %3, align 8
  store i64 %1, ptr %4, align 8
  %5 = load ptr, ptr %3, align 8
  %6 = getelementptr inbounds nuw %"struct.std::_Vector_base", ptr %5, i32 0, i32 0
  %7 = getelementptr inbounds nuw %"struct.std::_Vector_base<char, std::allocator<char>>::_Vector_impl_data", ptr %6, i32 0, i32 0
  %8 = load ptr, ptr %7, align 8
  %9 = load i64, ptr %4, align 8
  %10 = getelementptr inbounds nuw i8, ptr %8, i64 %9
  ret ptr %10
}

; Function Attrs: mustprogress nounwind uwtable
define linkonce_odr hidden noundef i64 @_ZNKSt6vectorIPN6Assimp5Q3BSP12sQ3BSPVertexESaIS3_EE4sizeEv(ptr noundef nonnull align 8 dereferenceable(24) %0) #2 comdat align 2 {
  %2 = alloca ptr, align 8
  store ptr %0, ptr %2, align 8
  %3 = load ptr, ptr %2, align 8
  %4 = getelementptr inbounds nuw %"struct.std::_Vector_base.11", ptr %3, i32 0, i32 0
  %5 = getelementptr inbounds nuw %"struct.std::_Vector_base<Assimp::Q3BSP::sQ3BSPVertex *, std::allocator<Assimp::Q3BSP::sQ3BSPVertex *>>::_Vector_impl_data", ptr %4, i32 0, i32 1
  %6 = load ptr, ptr %5, align 8
  %7 = getelementptr inbounds nuw %"struct.std::_Vector_base.11", ptr %3, i32 0, i32 0
  %8 = getelementptr inbounds nuw %"struct.std::_Vector_base<Assimp::Q3BSP::sQ3BSPVertex *, std::allocator<Assimp::Q3BSP::sQ3BSPVertex *>>::_Vector_impl_data", ptr %7, i32 0, i32 0
  %9 = load ptr, ptr %8, align 8
  %10 = ptrtoint ptr %6 to i64
  %11 = ptrtoint ptr %9 to i64
  %12 = sub i64 %10, %11
  %13 = sdiv exact i64 %12, 8
  ret i64 %13
}

; Function Attrs: mustprogress nounwind uwtable
define linkonce_odr hidden noundef nonnull align 8 dereferenceable(8) ptr @_ZNSt6vectorIPN6Assimp5Q3BSP10sQ3BSPLumpESaIS3_EEixEm(ptr noundef nonnull align 8 dereferenceable(24) %0, i64 noundef %1) #2 comdat align 2 {
  %3 = alloca ptr, align 8
  %4 = alloca i64, align 8
  store ptr %0, ptr %3, align 8
  store i64 %1, ptr %4, align 8
  %5 = load ptr, ptr %3, align 8
  %6 = getelementptr inbounds nuw %"struct.std::_Vector_base.6", ptr %5, i32 0, i32 0
  %7 = getelementptr inbounds nuw %"struct.std::_Vector_base<Assimp::Q3BSP::sQ3BSPLump *, std::allocator<Assimp::Q3BSP::sQ3BSPLump *>>::_Vector_impl_data", ptr %6, i32 0, i32 0
  %8 = load ptr, ptr %7, align 8
  %9 = load i64, ptr %4, align 8
  %10 = getelementptr inbounds nuw ptr, ptr %8, i64 %9
  ret ptr %10
}

; Function Attrs: mustprogress uwtable
define hidden void @_ZN6Assimp15Q3BSPFileParser11getVerticesEv(ptr noundef nonnull align 8 dereferenceable(48) %0) #0 align 2 {
  %2 = alloca ptr, align 8
  %3 = alloca i64, align 8
  %4 = alloca i64, align 8
  %5 = alloca ptr, align 8
  store ptr %0, ptr %2, align 8
  %6 = load ptr, ptr %2, align 8
  call void @llvm.lifetime.start.p0(i64 8, ptr %3) #14
  %7 = getelementptr inbounds nuw %"class.Assimp::Q3BSPFileParser", ptr %6, i32 0, i32 2
  %8 = load ptr, ptr %7, align 8
  %9 = getelementptr inbounds nuw %"struct.Assimp::Q3BSP::Q3BSPModel", ptr %8, i32 0, i32 1
  %10 = call noundef nonnull align 8 dereferenceable(8) ptr @_ZNSt6vectorIPN6Assimp5Q3BSP10sQ3BSPLumpESaIS3_EEixEm(ptr noundef nonnull align 8 dereferenceable(24) %9, i64 noundef 10) #14
  %11 = load ptr, ptr %10, align 8
  %12 = getelementptr inbounds nuw %"struct.Assimp::Q3BSP::sQ3BSPLump", ptr %11, i32 0, i32 0
  %13 = load i32, ptr %12, align 4
  %14 = sext i32 %13 to i64
  store i64 %14, ptr %3, align 8
  call void @llvm.lifetime.start.p0(i64 8, ptr %4) #14
  store i64 0, ptr %4, align 8
  br label %15

15:                                               ; preds = %37, %1
  %16 = load i64, ptr %4, align 8
  %17 = getelementptr inbounds nuw %"class.Assimp::Q3BSPFileParser", ptr %6, i32 0, i32 2
  %18 = load ptr, ptr %17, align 8
  %19 = getelementptr inbounds nuw %"struct.Assimp::Q3BSP::Q3BSPModel", ptr %18, i32 0, i32 2
  %20 = call noundef i64 @_ZNKSt6vectorIPN6Assimp5Q3BSP12sQ3BSPVertexESaIS3_EE4sizeEv(ptr noundef nonnull align 8 dereferenceable(24) %19) #14
  %21 = icmp ult i64 %16, %20
  br i1 %21, label %23, label %22

22:                                               ; preds = %15
  call void @llvm.lifetime.end.p0(i64 8, ptr %4) #14
  br label %40

23:                                               ; preds = %15
  call void @llvm.lifetime.start.p0(i64 8, ptr %5) #14
  %24 = call noalias noundef nonnull ptr @_Znwm(i64 noundef 44) #15
  store ptr %24, ptr %5, align 8
  %25 = load ptr, ptr %5, align 8
  %26 = getelementptr inbounds nuw %"class.Assimp::Q3BSPFileParser", ptr %6, i32 0, i32 1
  %27 = load i64, ptr %3, align 8
  %28 = call noundef nonnull align 1 dereferenceable(1) ptr @_ZNSt6vectorIcSaIcEEixEm(ptr noundef nonnull align 8 dereferenceable(24) %26, i64 noundef %27) #14
  call void @llvm.memcpy.p0.p0.i64(ptr align 4 %25, ptr align 1 %28, i64 44, i1 false)
  %29 = load i64, ptr %3, align 8
  %30 = add i64 %29, 44
  store i64 %30, ptr %3, align 8
  %31 = load ptr, ptr %5, align 8
  %32 = getelementptr inbounds nuw %"class.Assimp::Q3BSPFileParser", ptr %6, i32 0, i32 2
  %33 = load ptr, ptr %32, align 8
  %34 = getelementptr inbounds nuw %"struct.Assimp::Q3BSP::Q3BSPModel", ptr %33, i32 0, i32 2
  %35 = load i64, ptr %4, align 8
  %36 = call noundef nonnull align 8 dereferenceable(8) ptr @_ZNSt6vectorIPN6Assimp5Q3BSP12sQ3BSPVertexESaIS3_EEixEm(ptr noundef nonnull align 8 dereferenceable(24) %34, i64 noundef %35) #14
  store ptr %31, ptr %36, align 8
  call void @llvm.lifetime.end.p0(i64 8, ptr %5) #14
  br label %37

37:                                               ; preds = %23
  %38 = load i64, ptr %4, align 8
  %39 = add i64 %38, 1
  store i64 %39, ptr %4, align 8
  br label %15, !llvm.loop !10

40:                                               ; preds = %22
  call void @llvm.lifetime.end.p0(i64 8, ptr %3) #14
  ret void
}